; Function Attrs: mustprogress uwtable
define void @_ZN7memif_t10write_int8Em13target_endianIaE(ptr noundef nonnull align 8 dereferenceable(16) %0, i64 noundef %1, i8 %2) unnamed_addr #0 align 2 personality ptr @__gxx_personality_v0 {
  %4 = alloca %class.target_endian.0, align 1
  store i8 %2, ptr %4, align 1
  %5 = load ptr, ptr %0, align 8, !tbaa !9
  %6 = getelementptr inbounds nuw i8, ptr %5, i64 24
  %7 = load ptr, ptr %6, align 8
  call void %7(ptr noundef nonnull align 8 dereferenceable(16) %0, i64 noundef %1, i64 noundef 1, ptr noundef nonnull %4)
  ret void
}